target datalayout = "e-m:e-p270:32:32-p271:32:32-p272:64:64-i64:64-i128:128-f80:128-n8:16:32:64-S128"
target triple = "x86_64-unknown-linux-gnu"

%"class.icu_75::UObject" = type { ptr }
%"class.icu_75::Normalizer2Impl" = type { %"class.icu_75::UObject", i16, i16, i16, i16, i16, i16, i16, i16, i16, i16, i16, i16, ptr, ptr, ptr, ptr, %"struct.icu_75::UInitOnce", ptr }
%"struct.icu_75::UInitOnce" = type { %"struct.std::atomic", i32 }
%"struct.std::atomic" = type { %"struct.std::__atomic_base" }
%"struct.std::__atomic_base" = type { i32 }

; Function Attrs: mustprogress nounwind uwtable
define linkonce_odr noundef ptr @_ZNK6icu_7515Normalizer2Impl10getMappingEt(ptr noundef nonnull align 8 dereferenceable(80) %this, i16 noundef zeroext %norm16) #2 comdat align 2 {
entry:
  %this.addr = alloca ptr, align 8
  %norm16.addr = alloca i16, align 2
  store ptr %this, ptr %this.addr, align 8
  store i16 %norm16, ptr %norm16.addr, align 2
  %this1 = load ptr, ptr %this.addr, align 8
  %extraData = getelementptr inbounds %"class.icu_75::Normalizer2Impl", ptr %this1, i32 0, i32 15
  %0 = load ptr, ptr %extraData, align 8
  %1 = load i16, ptr %norm16.addr, align 2
  %conv = zext i16 %1 to i32
  %shr = ashr i32 %conv, 1
  %idx.ext = sext i32 %shr to i64
  %add.ptr = getelementptr inbounds i16, ptr %0, i64 %idx.ext
  ret ptr %add.ptr
}

; Function Attrs: mustprogress uwtable
define noundef signext i8 @_ZNK6icu_7515Normalizer2Impl29norm16HasDecompBoundaryBeforeEt(ptr noundef nonnull align 8 dereferenceable(80) %this, i16 noundef zeroext %norm16) #0 align 2 {
entry:
  %retval = alloca i8, align 1
  %this.addr = alloca ptr, align 8
  %norm16.addr = alloca i16, align 2
  %mapping = alloca ptr, align 8
  %firstUnit = alloca i16, align 2
  store ptr %this, ptr %this.addr, align 8
  store i16 %norm16, ptr %norm16.addr, align 2
  %this1 = load ptr, ptr %this.addr, align 8
  %0 = load i16, ptr %norm16.addr, align 2
  %conv = zext i16 %0 to i32
  %minNoNoCompNoMaybeCC = getelementptr inbounds %"class.icu_75::Normalizer2Impl", ptr %this1, i32 0, i32 8
  %1 = load i16, ptr %minNoNoCompNoMaybeCC, align 2
  %conv2 = zext i16 %1 to i32
  %cmp = icmp slt i32 %conv, %conv2
  br i1 %cmp, label %if.then, label %if.end

if.then:                                          ; preds = %entry
  store i8 1, ptr %retval, align 1
  br label %return

if.end:                                           ; preds = %entry
  %2 = load i16, ptr %norm16.addr, align 2
  %conv3 = zext i16 %2 to i32
  %limitNoNo = getelementptr inbounds %"class.icu_75::Normalizer2Impl", ptr %this1, i32 0, i32 10
  %3 = load i16, ptr %limitNoNo, align 2
  %conv4 = zext i16 %3 to i32
  %cmp5 = icmp sge i32 %conv3, %conv4
  br i1 %cmp5, label %if.then6, label %if.end12

if.then6:                                         ; preds = %if.end
  %4 = load i16, ptr %norm16.addr, align 2
  %conv7 = zext i16 %4 to i32
  %cmp8 = icmp sle i32 %conv7, 64512
  br i1 %cmp8, label %lor.end, label %lor.rhs

lor.rhs:                                          ; preds = %if.then6
  %5 = load i16, ptr %norm16.addr, align 2
  %conv9 = zext i16 %5 to i32
  %cmp10 = icmp eq i32 %conv9, 65024
  br label %lor.end

lor.end:                                          ; preds = %lor.rhs, %if.then6
  %6 = phi i1 [ true, %if.then6 ], [ %cmp10, %lor.rhs ]
  %conv11 = zext i1 %6 to i8
  store i8 %conv11, ptr %retval, align 1
  br label %return

if.end12:                                         ; preds = %if.end
  %7 = load i16, ptr %norm16.addr, align 2
  %call = call noundef ptr @_ZNK6icu_7515Normalizer2Impl10getMappingEt(ptr noundef nonnull align 8 dereferenceable(80) %this1, i16 noundef zeroext %7)
  store ptr %call, ptr %mapping, align 8
  %8 = load ptr, ptr %mapping, align 8
  %9 = load i16, ptr %8, align 2
  store i16 %9, ptr %firstUnit, align 2
  %10 = load i16, ptr %firstUnit, align 2
  %conv13 = zext i16 %10 to i32
  %and = and i32 %conv13, 128
  %cmp14 = icmp eq i32 %and, 0
  br i1 %cmp14, label %lor.end19, label %lor.rhs15

lor.rhs15:                                        ; preds = %if.end12
  %11 = load ptr, ptr %mapping, align 8
  %add.ptr = getelementptr inbounds i16, ptr %11, i64 -1
  %12 = load i16, ptr %add.ptr, align 2
  %conv16 = zext i16 %12 to i32
  %and17 = and i32 %conv16, 65280
  %cmp18 = icmp eq i32 %and17, 0
  br label %lor.end19

lor.end19:                                        ; preds = %lor.rhs15, %if.end12
  %13 = phi i1 [ true, %if.end12 ], [ %cmp18, %lor.rhs15 ]
  %conv20 = zext i1 %13 to i8
  store i8 %conv20, ptr %retval, align 1
  br label %return

return:                                           ; preds = %lor.end19, %lor.end, %if.then
  %14 = load i8, ptr %retval, align 1
  ret i8 %14
}