; Function Attrs: mustprogress nofree norecurse nosync nounwind willreturn memory(read, inaccessiblemem: none) uwtable
define noundef signext i8 @_ZNK6icu_7515Normalizer2Impl29norm16HasDecompBoundaryBeforeEt(ptr nocapture noundef nonnull readonly align 8 dereferenceable(80) %this, i16 noundef zeroext %norm16) local_unnamed_addr #2 align 2 {
entry:
  %minNoNoCompNoMaybeCC = getelementptr inbounds i8, ptr %this, i64 22
  %0 = load i16, ptr %minNoNoCompNoMaybeCC, align 2
  %cmp = icmp ugt i16 %0, %norm16
  br i1 %cmp, label %return, label %if.end

if.end:                                           ; preds = %entry
  %limitNoNo = getelementptr inbounds i8, ptr %this, i64 26
  %1 = load i16, ptr %limitNoNo, align 2
  %cmp5.not = icmp ugt i16 %1, %norm16
  br i1 %cmp5.not, label %if.end12, label %if.then6

if.then6:                                         ; preds = %if.end
  %cmp8 = icmp ult i16 %norm16, -1023
  %cmp10 = icmp eq i16 %norm16, -512
  %2 = or i1 %cmp8, %cmp10
  br label %return

if.end12:                                         ; preds = %if.end
  %extraData.i = getelementptr inbounds i8, ptr %this, i64 48
  %3 = load ptr, ptr %extraData.i, align 8
  %4 = lshr i16 %norm16, 1
  %idx.ext.i = zext nneg i16 %4 to i64
  %add.ptr.i = getelementptr inbounds i16, ptr %3, i64 %idx.ext.i
  %5 = load i16, ptr %add.ptr.i, align 2
  %6 = and i16 %5, 128
  %cmp14 = icmp eq i16 %6, 0
  br i1 %cmp14, label %return, label %lor.rhs15

lor.rhs15:                                        ; preds = %if.end12
  %add.ptr = getelementptr inbounds i8, ptr %add.ptr.i, i64 -2
  %7 = load i16, ptr %add.ptr, align 2
  %cmp18 = icmp ult i16 %7, 256
  br label %return

return:                                           ; preds = %if.end12, %lor.rhs15, %entry, %if.then6
  %retval.0.shrunk = phi i1 [ %2, %if.then6 ], [ true, %entry ], [ true, %if.end12 ], [ %cmp18, %lor.rhs15 ]
  %retval.0 = zext i1 %retval.0.shrunk to i8
  ret i8 %retval.0
}